; Function Attrs: mustprogress nofree norecurse nosync nounwind willreturn memory(argmem: readwrite) uwtable
define void @_ZN7Imf_3_47CubeMap17dataWindowForFaceENS_11CubeMapFaceERKN9Imath_3_23BoxINS2_4Vec2IiEEEE(ptr dead_on_unwind noalias writable writeonly sret(%"class.Imath_3_2::Box") align 4 captures(none) initializes((0, 16)) %0, i32 noundef %1, ptr noundef nonnull readonly align 4 captures(none) dereferenceable(16) %2) local_unnamed_addr #5 {
  %4 = getelementptr inbounds nuw i8, ptr %2, i64 8
  %5 = load i32, ptr %4, align 4, !tbaa !20
  %6 = load i32, ptr %2, align 4, !tbaa !21
  %7 = add i32 %5, 1
  %8 = sub i32 %7, %6
  %9 = getelementptr inbounds nuw i8, ptr %2, i64 12
  %10 = load i32, ptr %9, align 4, !tbaa !16
  %11 = getelementptr inbounds nuw i8, ptr %2, i64 4
  %12 = load i32, ptr %11, align 4, !tbaa !19
  %13 = add i32 %10, 1
  %14 = sub i32 %13, %12
  %15 = sdiv i32 %14, 6
  %.sroa.speculated.i = tail call noundef range(i32 -2147483647, 357913942) i32 @llvm.smin.i32(i32 %15, i32 %8)
  %16 = getelementptr inbounds nuw i8, ptr %0, i64 4
  %17 = getelementptr inbounds nuw i8, ptr %0, i64 8
  %18 = getelementptr inbounds nuw i8, ptr %0, i64 12
  store i32 0, ptr %0, align 4, !tbaa !21
  %19 = mul nsw i32 %.sroa.speculated.i, %1
  store i32 %19, ptr %16, align 4, !tbaa !19
  %20 = add nsw i32 %.sroa.speculated.i, -1
  store i32 %20, ptr %17, align 4, !tbaa !20
  %21 = add i32 %20, %19
  store i32 %21, ptr %18, align 4, !tbaa !16
  ret void
}